target datalayout = "e-m:e-p270:32:32-p271:32:32-p272:64:64-i64:64-i128:128-f80:128-n8:16:32:64-S128"
target triple = "x86_64-pc-linux-gnu"

%struct.XML_Memory_Handling_Suite = type { ptr, ptr, ptr }
%struct.XML_ParserStruct = type { ptr, ptr, ptr, %struct.XML_Memory_Handling_Suite, ptr, ptr, ptr, i64, ptr, i64, i8, i32, ptr, ptr, ptr, ptr, ptr, ptr, ptr, ptr, ptr, ptr, ptr, ptr, ptr, ptr, ptr, ptr, ptr, ptr, ptr, ptr, ptr, ptr, ptr, ptr, ptr, ptr, %struct.INIT_ENCODING, ptr, ptr, i8, i8, ptr, ptr, ptr, ptr, %struct.prolog_state, ptr, i32, ptr, ptr, ptr, ptr, ptr, i8, i32, ptr, ptr, ptr, ptr, ptr, ptr, ptr, ptr, ptr, i8, i8, ptr, ptr, ptr, ptr, ptr, ptr, i32, i32, i32, ptr, ptr, i64, i8, %struct.position, %struct.STRING_POOL, %struct.STRING_POOL, ptr, i32, i8, ptr, %struct.XML_ParsingStatus, i8, i8, i32, i64, %struct.accounting, %struct.entity_stats }
%struct.INIT_ENCODING = type { %struct.encoding, ptr }
%struct.encoding = type { [4 x ptr], [2 x ptr], ptr, ptr, ptr, ptr, ptr, ptr, ptr, ptr, ptr, ptr, i32, i8, i8 }
%struct.prolog_state = type { ptr, i32, i32, i32, i32, i32 }
%struct.position = type { i64, i64 }
%struct.STRING_POOL = type { ptr, ptr, ptr, ptr, ptr, ptr }
%struct.XML_ParsingStatus = type { i32, i8 }
%struct.accounting = type { i64, i64, i64, float, i64 }
%struct.entity_stats = type { i32, i32, i32, i64 }

; Function Attrs: nounwind uwtable
define hidden void @PyExpat_XML_SetProcessingInstructionHandler(ptr noundef %0, ptr noundef %1) #0 {
  %3 = alloca ptr, align 8
  %4 = alloca ptr, align 8
  store ptr %0, ptr %3, align 8, !tbaa !12
  store ptr %1, ptr %4, align 8, !tbaa !8
  %5 = load ptr, ptr %3, align 8, !tbaa !12
  %6 = icmp ne ptr %5, null
  br i1 %6, label %7, label %11

7:                                                ; preds = %2
  %8 = load ptr, ptr %4, align 8, !tbaa !8
  %9 = load ptr, ptr %3, align 8, !tbaa !12
  %10 = getelementptr inbounds nuw %struct.XML_ParserStruct, ptr %9, i32 0, i32 17
  store ptr %8, ptr %10, align 8, !tbaa !99
  br label %11

11:                                               ; preds = %7, %2
  ret void
}